(lp0
(lp1
I1
aS'Tommi'
p2
aS'1:20:11'
p3
aS'475'
p4
aa(lp5
I2
aS'bjossi'
p6
aS'0:00:09'
p7
aS'10'
p8
aa(lp9
I3
aS'\x1bjksdfl'
p10
aS'0:00:27'
p11
aS'0'
p12
aa(lp13
I4
aS'geh'
p14
aS'0:00:07'
p15
aS'0'
p16
aa(lp17
I5
aS'pirrpirr'
p18
aS'0:00:28'
p19
aS'0'
p20
aa(lp21
I6
aS'bestur'
p22
aS'0:00:16'
p23
aS'-13'
p24
aa(lp25
I7
aS'hallohal'
p26
aS'0:00:22'
p27
aS'-30'
p28
aa.