(lp0
(lp1
I1
aS'Tommi'
p2
aS'1:20:11'
p3
aS'475'
p4
aa(lp5
I2
aS'bjossi'
p6
aS'0:00:09'
p7
aS'10'
p8
aa(lp9
I3
aS'adsadas'
p10
aS'0:00:36'
p11
aS'6'
p12
aa(lp13
I4
aS'jnkjn'
p14
aS'0:01:57'
p15
aS'6'
p16
aa(lp17
I5
aS'\x1bjksdfl'
p18
aS'0:00:27'
p19
aS'0'
p20
aa(lp21
I6
aS'geh'
p22
aS'0:00:07'
p23
aS'0'
p24
aa(lp25
I7
aS'pirrpirr'
p26
aS'0:00:28'
p27
aS'0'
p28
aa(lp29
I8
aS'tommi'
p30
aS'0:00:07'
p31
aS'0'
p32
aa(lp33
I9
aS'bla'
p34
aS'0:25:01'
p35
aS'0'
p36
aa(lp37
I10
aS'asd'
p38
aS'0:00:10'
p39
aS'0'
p40
aa(lp41
I11
aS'asda'
p42
aS'0:00:12'
p43
aS'0'
p44
aa(lp45
I12
aS'asd'
p46
aS'0:00:50'
p47
aS'-1'
p48
aa(lp49
I13
aS'knkjn'
p50
aS'0:07:30'
p51
aS'-5'
p52
aa(lp53
I14
aS'bestur'
p54
aS'0:00:16'
p55
aS'-13'
p56
aa(lp57
I15
aS'hallohal'
p58
aS'0:00:22'
p59
aS'-30'
p60
aa.