(lp0
(lp1
I1
aS'bjossi b'
p2
aS'0:06:27'
p3
aS'496'
p4
aa(lp5
I2
aS'Tommi'
p6
aS'1:20:11'
p7
aS'475'
p8
aa(lp9
I3
aS'bjossi'
p10
aS'0:00:09'
p11
aS'10'
p12
aa(lp13
I4
aS'\x1bjksdfl'
p14
aS'0:00:27'
p15
aS'0'
p16
aa(lp17
I5
aS'geh'
p18
aS'0:00:07'
p19
aS'0'
p20
aa(lp21
I6
aS'pirrpirr'
p22
aS'0:00:28'
p23
aS'0'
p24
aa(lp25
I7
aS''
p26
aS'0:00:15'
p27
aS'0'
p28
aa(lp29
I8
ag26
aS'0:00:49'
p30
aS'0'
p31
aa(lp32
I9
ag26
aS'0:04:38'
p33
aS'0'
p34
aa(lp35
I10
aS'asdfjh'
p36
aS'0:01:59'
p37
aS'0'
p38
aa(lp39
I11
aS'bestur'
p40
aS'0:00:16'
p41
aS'-13'
p42
aa(lp43
I12
aS'bjossi l'
p44
aS'0:06:25'
p45
aS'-19'
p46
aa(lp47
I13
aS'hallohal'
p48
aS'0:00:22'
p49
aS'-30'
p50
aa(lp51
I14
aS'jeijei'
p52
aS'0:00:42'
p53
aS'-45'
p54
aa.