(lp0
(lp1
I1
aS'bjossi b'
p2
aS'0:06:27'
p3
aS'496'
p4
aa(lp5
I2
aS'Tommi'
p6
aS'1:20:11'
p7
aS'475'
p8
aa(lp9
I3
<<<<<<< HEAD
aS'bjossi'
p10
aS'0:00:09'
p11
aS'10'
p12
aa(lp13
I4
aS'\x1bjksdfl'
p14
aS'0:00:27'
=======
aS'adsadas'
p10
aS'0:00:36'
p11
aS'6'
p12
aa(lp13
I4
aS'jnkjn'
p14
aS'0:01:57'
>>>>>>> 98de320542ec2ab80d13ca30e3f32b703b912d85
p15
aS'6'
p16
aa(lp17
I5
<<<<<<< HEAD
aS'geh'
p18
aS'0:00:07'
=======
aS'\x1bjksdfl'
p18
aS'0:00:27'
>>>>>>> 98de320542ec2ab80d13ca30e3f32b703b912d85
p19
aS'0'
p20
aa(lp21
I6
<<<<<<< HEAD
aS'pirrpirr'
p22
aS'0:00:28'
=======
aS'geh'
p22
aS'0:00:07'
>>>>>>> 98de320542ec2ab80d13ca30e3f32b703b912d85
p23
aS'0'
p24
aa(lp25
I7
<<<<<<< HEAD
aS''
p26
aS'0:00:15'
=======
aS'pirrpirr'
p26
aS'0:00:28'
>>>>>>> 98de320542ec2ab80d13ca30e3f32b703b912d85
p27
aS'0'
p28
aa(lp29
I8
<<<<<<< HEAD
ag26
aS'0:00:49'
p30
aS'0'
p31
aa(lp32
I9
ag26
aS'0:04:38'
p33
aS'0'
p34
aa(lp35
I10
aS'asdfjh'
p36
aS'0:01:59'
p37
aS'0'
p38
aa(lp39
I11
aS'bestur'
p40
aS'0:00:16'
p41
aS'-13'
p42
aa(lp43
I12
aS'bjossi l'
p44
aS'0:06:25'
p45
aS'-19'
p46
aa(lp47
I13
aS'hallohal'
p48
aS'0:00:22'
p49
aS'-30'
p50
aa(lp51
I14
aS'jeijei'
p52
aS'0:00:42'
p53
aS'-45'
p54
=======
aS'tommi'
p30
aS'0:00:07'
p31
aS'0'
p32
aa(lp33
I9
aS'bla'
p34
aS'0:25:01'
p35
aS'0'
p36
aa(lp37
I10
aS'asd'
p38
aS'0:00:10'
p39
aS'0'
p40
aa(lp41
I11
aS'asda'
p42
aS'0:00:12'
p43
aS'0'
p44
aa(lp45
I12
aS'asd'
p46
aS'0:00:50'
p47
aS'-1'
p48
aa(lp49
I13
aS'knkjn'
p50
aS'0:07:30'
p51
aS'-5'
p52
aa(lp53
I14
aS'bestur'
p54
aS'0:00:16'
p55
aS'-13'
p56
aa(lp57
I15
aS'hallohal'
p58
aS'0:00:22'
p59
aS'-30'
p60
>>>>>>> 98de320542ec2ab80d13ca30e3f32b703b912d85
aa.